target datalayout = "e-m:e-p270:32:32-p271:32:32-p272:64:64-i64:64-i128:128-f80:128-n8:16:32:64-S128"
target triple = "x86_64-pc-linux-gnu"

%struct.termios = type { i32, i32, i32, i32, i8, [32 x i8], i32, i32 }

@oldtty = internal global %struct.termios zeroinitializer, align 4
@restore_tty = internal global i32 0, align 4
@received_nb_signals = internal global i32 0, align 4
@received_sigterm = internal global i32 0, align 4
@.str.12 = private unnamed_addr constant [43 x i8] c"Received > 3 system signals, hard exiting\0A\00", align 1

; Function Attrs: nounwind uwtable
define internal void @term_exit_sigsafe() #0 {
  %1 = load i32, ptr @restore_tty, align 4, !tbaa !4
  %2 = icmp ne i32 %1, 0
  br i1 %2, label %3, label %5

3:                                                ; preds = %0
  %4 = call i32 @tcsetattr(i32 noundef 0, i32 noundef 0, ptr noundef @oldtty) #12
  br label %5

5:                                                ; preds = %3, %0
  ret void
}

; Function Attrs: nounwind uwtable
define internal void @sigterm_handler(i32 noundef %0) #0 {
  %2 = alloca i32, align 4
  %3 = alloca i32, align 4
  store i32 %0, ptr %2, align 4, !tbaa !4
  call void @llvm.lifetime.start.p0(i64 4, ptr %3) #12
  %4 = load i32, ptr %2, align 4, !tbaa !4
  store volatile i32 %4, ptr @received_sigterm, align 4, !tbaa !4
  %5 = load volatile i32, ptr @received_nb_signals, align 4, !tbaa !4
  %6 = add nsw i32 %5, 1
  store volatile i32 %6, ptr @received_nb_signals, align 4, !tbaa !4
  call void @term_exit_sigsafe()
  %7 = load volatile i32, ptr @received_nb_signals, align 4, !tbaa !4
  %8 = icmp sgt i32 %7, 3
  br i1 %8, label %9, label %16

9:                                                ; preds = %1
  %10 = call i64 @write(i32 noundef 2, ptr noundef @.str.12, i64 noundef 42)
  %11 = trunc i64 %10 to i32
  store i32 %11, ptr %3, align 4, !tbaa !4
  %12 = load i32, ptr %3, align 4, !tbaa !4
  %13 = icmp slt i32 %12, 0
  br i1 %13, label %14, label %15

14:                                               ; preds = %9
  br label %15

15:                                               ; preds = %14, %9
  call void @exit(i32 noundef 123) #13
  unreachable

16:                                               ; preds = %1
  call void @llvm.lifetime.end.p0(i64 4, ptr %3) #12
  ret void
}