; Function Attrs: nounwind uwtable
define internal void @sigterm_handler(i32 noundef %0) #0 {
  store volatile i32 %0, ptr @received_sigterm, align 4, !tbaa !12
  %2 = load volatile i32, ptr @received_nb_signals, align 4, !tbaa !12
  %3 = add nsw i32 %2, 1
  store volatile i32 %3, ptr @received_nb_signals, align 4, !tbaa !12
  %.b.i = load i1, ptr @restore_tty, align 4
  br i1 %.b.i, label %4, label %term_exit_sigsafe.exit

4:                                                ; preds = %1
  %5 = tail call i32 @tcsetattr(i32 noundef 0, i32 noundef 0, ptr noundef nonnull @oldtty) #17
  br label %term_exit_sigsafe.exit

term_exit_sigsafe.exit:                           ; preds = %1, %4
  %6 = load volatile i32, ptr @received_nb_signals, align 4, !tbaa !12
  %7 = icmp sgt i32 %6, 3
  br i1 %7, label %8, label %10

8:                                                ; preds = %term_exit_sigsafe.exit
  %9 = tail call i64 @write(i32 noundef 2, ptr noundef nonnull @.str.12, i64 noundef 42) #17
  tail call void @exit(i32 noundef 123) #18
  unreachable

10:                                               ; preds = %term_exit_sigsafe.exit
  ret void
}